; Function Attrs: mustprogress uwtable
define hidden void @_ZN11opencv_test30Layer_Slice_YOLOv4_tiny_1_Test12PerfTestBodyEv(ptr noundef nonnull align 8 dereferenceable(257) %0) unnamed_addr #4 align 2 {
  %2 = alloca [4 x i32], align 16
  %3 = alloca [4 x i32], align 16
  %4 = alloca [4 x i32], align 16
  call void @llvm.lifetime.start.p0(i64 16, ptr nonnull %2) #30
  call void @llvm.memcpy.p0.p0.i64(ptr noundef nonnull align 16 dereferenceable(16) %2, ptr noundef nonnull align 16 dereferenceable(16) @__const._ZN11opencv_test30Layer_Slice_YOLOv4_tiny_1_Test12PerfTestBodyEv.end, i64 16, i1 false)
  call void @llvm.lifetime.start.p0(i64 16, ptr nonnull %3) #30
  call void @llvm.memcpy.p0.p0.i64(ptr noundef nonnull align 16 dereferenceable(16) %3, ptr noundef nonnull align 16 dereferenceable(16) @__const._ZN11opencv_test30Layer_Slice_YOLOv4_tiny_1_Test12PerfTestBodyEv.begin, i64 16, i1 false)
  call void @llvm.lifetime.start.p0(i64 16, ptr nonnull %4) #30
  call void @llvm.memcpy.p0.p0.i64(ptr noundef nonnull align 16 dereferenceable(16) %4, ptr noundef nonnull align 16 dereferenceable(16) @__const._ZN11opencv_test30Layer_Slice_YOLOv4_tiny_1_Test12PerfTestBodyEv.end, i64 16, i1 false)
  call void @_ZN11opencv_test11Layer_Slice10test_sliceILi4EEEvPKiS3_S3_(ptr noundef nonnull align 8 dereferenceable(256) %0, ptr noundef nonnull %2, ptr noundef nonnull %3, ptr noundef nonnull %4)
  call void @llvm.lifetime.end.p0(i64 16, ptr nonnull %4) #30
  call void @llvm.lifetime.end.p0(i64 16, ptr nonnull %3) #30
  call void @llvm.lifetime.end.p0(i64 16, ptr nonnull %2) #30
  ret void
}